; Function Attrs: mustprogress uwtable
define hidden noundef i32 @_Z23get_clause_num_literalsR11ast_managerP4expr(ptr noundef nonnull align 8 dereferenceable(976) %0, ptr noundef %1) local_unnamed_addr #3 {
  %3 = tail call noundef zeroext i1 @_Z10is_literalR11ast_managerP4expr(ptr noundef nonnull align 8 dereferenceable(976) %0, ptr noundef %1)
  br i1 %3, label %7, label %4

4:                                                ; preds = %2
  %5 = getelementptr inbounds nuw i8, ptr %1, i64 24
  %6 = load i32, ptr %5, align 8, !tbaa !19
  br label %7

7:                                                ; preds = %2, %4
  %.0 = phi i32 [ %6, %4 ], [ 1, %2 ]
  ret i32 %.0
}